; ModuleID = '38/696.c'
source_filename = "38/696.c"
target datalayout = "e-m:e-p270:32:32-p271:32:32-p272:64:64-i64:64-f80:128-n8:16:32:64-S128"
target triple = "x86_64-pc-linux-gnu"

@.str = private unnamed_addr constant [3 x i8] c"%d\00", align 1
@.str.1 = private unnamed_addr constant [4 x i8] c"%lf\00", align 1
@.str.2 = private unnamed_addr constant [7 x i8] c"%.5lf\0A\00", align 1

; Function Attrs: noinline nounwind uwtable
define dso_local i32 @main() #0 {
  %1 = alloca i32, align 4
  %2 = alloca i32, align 4
  %3 = alloca i32, align 4
  %4 = alloca i32, align 4
  %5 = alloca [100 x [101 x double]], align 16
  %6 = alloca [100 x [2 x double]], align 16
  store i32 0, i32* %1, align 4
  %7 = bitcast [100 x [101 x double]]* %5 to i8*
  call void @llvm.memset.p0i8.i64(i8* align 16 %7, i8 0, i64 80800, i1 false)
  %8 = bitcast [100 x [2 x double]]* %6 to i8*
  call void @llvm.memset.p0i8.i64(i8* align 16 %8, i8 0, i64 1600, i1 false)
  %9 = call i32 (i8*, ...) @__isoc99_scanf(i8* getelementptr inbounds ([3 x i8], [3 x i8]* @.str, i64 0, i64 0), i32* %2)
  store i32 0, i32* %3, align 4
  br label %10

10:                                               ; preds = %80, %0
  %11 = load i32, i32* %3, align 4
  %12 = load i32, i32* %2, align 4
  %13 = icmp slt i32 %11, %12
  br i1 %13, label %14, label %83

14:                                               ; preds = %10
  %15 = load i32, i32* %3, align 4
  %16 = sext i32 %15 to i64
  %17 = getelementptr inbounds [100 x [101 x double]], [100 x [101 x double]]* %5, i64 0, i64 %16
  %18 = getelementptr inbounds [101 x double], [101 x double]* %17, i64 0, i64 0
  %19 = call i32 (i8*, ...) @__isoc99_scanf(i8* getelementptr inbounds ([4 x i8], [4 x i8]* @.str.1, i64 0, i64 0), double* %18)
  %20 = load i32, i32* %3, align 4
  %21 = sext i32 %20 to i64
  %22 = getelementptr inbounds [100 x [101 x double]], [100 x [101 x double]]* %5, i64 0, i64 %21
  %23 = getelementptr inbounds [101 x double], [101 x double]* %22, i64 0, i64 0
  %24 = load double, double* %23, align 8
  %25 = fptosi double %24 to i32
  %26 = sitofp i32 %25 to double
  %27 = load i32, i32* %3, align 4
  %28 = sext i32 %27 to i64
  %29 = getelementptr inbounds [100 x [101 x double]], [100 x [101 x double]]* %5, i64 0, i64 %28
  %30 = getelementptr inbounds [101 x double], [101 x double]* %29, i64 0, i64 0
  store double %26, double* %30, align 8
  store i32 1, i32* %4, align 4
  br label %31

31:                                               ; preds = %61, %14
  %32 = load i32, i32* %4, align 4
  %33 = sitofp i32 %32 to double
  %34 = load i32, i32* %3, align 4
  %35 = sext i32 %34 to i64
  %36 = getelementptr inbounds [100 x [101 x double]], [100 x [101 x double]]* %5, i64 0, i64 %35
  %37 = getelementptr inbounds [101 x double], [101 x double]* %36, i64 0, i64 0
  %38 = load double, double* %37, align 8
  %39 = fcmp ole double %33, %38
  br i1 %39, label %40, label %64

40:                                               ; preds = %31
  %41 = load i32, i32* %3, align 4
  %42 = sext i32 %41 to i64
  %43 = getelementptr inbounds [100 x [101 x double]], [100 x [101 x double]]* %5, i64 0, i64 %42
  %44 = load i32, i32* %4, align 4
  %45 = sext i32 %44 to i64
  %46 = getelementptr inbounds [101 x double], [101 x double]* %43, i64 0, i64 %45
  %47 = call i32 (i8*, ...) @__isoc99_scanf(i8* getelementptr inbounds ([4 x i8], [4 x i8]* @.str.1, i64 0, i64 0), double* %46)
  %48 = load i32, i32* %3, align 4
  %49 = sext i32 %48 to i64
  %50 = getelementptr inbounds [100 x [101 x double]], [100 x [101 x double]]* %5, i64 0, i64 %49
  %51 = load i32, i32* %4, align 4
  %52 = sext i32 %51 to i64
  %53 = getelementptr inbounds [101 x double], [101 x double]* %50, i64 0, i64 %52
  %54 = load double, double* %53, align 8
  %55 = load i32, i32* %3, align 4
  %56 = sext i32 %55 to i64
  %57 = getelementptr inbounds [100 x [2 x double]], [100 x [2 x double]]* %6, i64 0, i64 %56
  %58 = getelementptr inbounds [2 x double], [2 x double]* %57, i64 0, i64 0
  %59 = load double, double* %58, align 16
  %60 = fadd double %59, %54
  store double %60, double* %58, align 16
  br label %61

61:                                               ; preds = %40
  %62 = load i32, i32* %4, align 4
  %63 = add nsw i32 %62, 1
  store i32 %63, i32* %4, align 4
  br label %31

64:                                               ; preds = %31
  %65 = load i32, i32* %3, align 4
  %66 = sext i32 %65 to i64
  %67 = getelementptr inbounds [100 x [2 x double]], [100 x [2 x double]]* %6, i64 0, i64 %66
  %68 = getelementptr inbounds [2 x double], [2 x double]* %67, i64 0, i64 0
  %69 = load double, double* %68, align 16
  %70 = load i32, i32* %3, align 4
  %71 = sext i32 %70 to i64
  %72 = getelementptr inbounds [100 x [101 x double]], [100 x [101 x double]]* %5, i64 0, i64 %71
  %73 = getelementptr inbounds [101 x double], [101 x double]* %72, i64 0, i64 0
  %74 = load double, double* %73, align 8
  %75 = fdiv double %69, %74
  %76 = load i32, i32* %3, align 4
  %77 = sext i32 %76 to i64
  %78 = getelementptr inbounds [100 x [2 x double]], [100 x [2 x double]]* %6, i64 0, i64 %77
  %79 = getelementptr inbounds [2 x double], [2 x double]* %78, i64 0, i64 0
  store double %75, double* %79, align 16
  br label %80

80:                                               ; preds = %64
  %81 = load i32, i32* %3, align 4
  %82 = add nsw i32 %81, 1
  store i32 %82, i32* %3, align 4
  br label %10

83:                                               ; preds = %10
  store i32 0, i32* %3, align 4
  br label %84

84:                                               ; preds = %152, %83
  %85 = load i32, i32* %3, align 4
  %86 = load i32, i32* %2, align 4
  %87 = icmp slt i32 %85, %86
  br i1 %87, label %88, label %155

88:                                               ; preds = %84
  store i32 1, i32* %4, align 4
  br label %89

89:                                               ; preds = %132, %88
  %90 = load i32, i32* %4, align 4
  %91 = sitofp i32 %90 to double
  %92 = load i32, i32* %3, align 4
  %93 = sext i32 %92 to i64
  %94 = getelementptr inbounds [100 x [101 x double]], [100 x [101 x double]]* %5, i64 0, i64 %93
  %95 = getelementptr inbounds [101 x double], [101 x double]* %94, i64 0, i64 0
  %96 = load double, double* %95, align 8
  %97 = fcmp ole double %91, %96
  br i1 %97, label %98, label %135

98:                                               ; preds = %89
  %99 = load i32, i32* %3, align 4
  %100 = sext i32 %99 to i64
  %101 = getelementptr inbounds [100 x [101 x double]], [100 x [101 x double]]* %5, i64 0, i64 %100
  %102 = load i32, i32* %4, align 4
  %103 = sext i32 %102 to i64
  %104 = getelementptr inbounds [101 x double], [101 x double]* %101, i64 0, i64 %103
  %105 = load double, double* %104, align 8
  %106 = load i32, i32* %3, align 4
  %107 = sext i32 %106 to i64
  %108 = getelementptr inbounds [100 x [2 x double]], [100 x [2 x double]]* %6, i64 0, i64 %107
  %109 = getelementptr inbounds [2 x double], [2 x double]* %108, i64 0, i64 0
  %110 = load double, double* %109, align 16
  %111 = fsub double %105, %110
  %112 = load i32, i32* %3, align 4
  %113 = sext i32 %112 to i64
  %114 = getelementptr inbounds [100 x [101 x double]], [100 x [101 x double]]* %5, i64 0, i64 %113
  %115 = load i32, i32* %4, align 4
  %116 = sext i32 %115 to i64
  %117 = getelementptr inbounds [101 x double], [101 x double]* %114, i64 0, i64 %116
  %118 = load double, double* %117, align 8
  %119 = load i32, i32* %3, align 4
  %120 = sext i32 %119 to i64
  %121 = getelementptr inbounds [100 x [2 x double]], [100 x [2 x double]]* %6, i64 0, i64 %120
  %122 = getelementptr inbounds [2 x double], [2 x double]* %121, i64 0, i64 0
  %123 = load double, double* %122, align 16
  %124 = fsub double %118, %123
  %125 = fmul double %111, %124
  %126 = load i32, i32* %3, align 4
  %127 = sext i32 %126 to i64
  %128 = getelementptr inbounds [100 x [2 x double]], [100 x [2 x double]]* %6, i64 0, i64 %127
  %129 = getelementptr inbounds [2 x double], [2 x double]* %128, i64 0, i64 1
  %130 = load double, double* %129, align 8
  %131 = fadd double %130, %125
  store double %131, double* %129, align 8
  br label %132

132:                                              ; preds = %98
  %133 = load i32, i32* %4, align 4
  %134 = add nsw i32 %133, 1
  store i32 %134, i32* %4, align 4
  br label %89

135:                                              ; preds = %89
  %136 = load i32, i32* %3, align 4
  %137 = sext i32 %136 to i64
  %138 = getelementptr inbounds [100 x [2 x double]], [100 x [2 x double]]* %6, i64 0, i64 %137
  %139 = getelementptr inbounds [2 x double], [2 x double]* %138, i64 0, i64 1
  %140 = load double, double* %139, align 8
  %141 = load i32, i32* %3, align 4
  %142 = sext i32 %141 to i64
  %143 = getelementptr inbounds [100 x [101 x double]], [100 x [101 x double]]* %5, i64 0, i64 %142
  %144 = getelementptr inbounds [101 x double], [101 x double]* %143, i64 0, i64 0
  %145 = load double, double* %144, align 8
  %146 = fdiv double %140, %145
  %147 = call double @sqrt(double %146) #4
  %148 = load i32, i32* %3, align 4
  %149 = sext i32 %148 to i64
  %150 = getelementptr inbounds [100 x [2 x double]], [100 x [2 x double]]* %6, i64 0, i64 %149
  %151 = getelementptr inbounds [2 x double], [2 x double]* %150, i64 0, i64 1
  store double %147, double* %151, align 8
  br label %152

152:                                              ; preds = %135
  %153 = load i32, i32* %3, align 4
  %154 = add nsw i32 %153, 1
  store i32 %154, i32* %3, align 4
  br label %84

155:                                              ; preds = %84
  store i32 0, i32* %3, align 4
  br label %156

156:                                              ; preds = %167, %155
  %157 = load i32, i32* %3, align 4
  %158 = load i32, i32* %2, align 4
  %159 = icmp slt i32 %157, %158
  br i1 %159, label %160, label %170

160:                                              ; preds = %156
  %161 = load i32, i32* %3, align 4
  %162 = sext i32 %161 to i64
  %163 = getelementptr inbounds [100 x [2 x double]], [100 x [2 x double]]* %6, i64 0, i64 %162
  %164 = getelementptr inbounds [2 x double], [2 x double]* %163, i64 0, i64 1
  %165 = load double, double* %164, align 8
  %166 = call i32 (i8*, ...) @printf(i8* getelementptr inbounds ([7 x i8], [7 x i8]* @.str.2, i64 0, i64 0), double %165)
  br label %167

167:                                              ; preds = %160
  %168 = load i32, i32* %3, align 4
  %169 = add nsw i32 %168, 1
  store i32 %169, i32* %3, align 4
  br label %156

170:                                              ; preds = %156
  ret i32 0
}

; Function Attrs: argmemonly nounwind willreturn
declare void @llvm.memset.p0i8.i64(i8* nocapture writeonly, i8, i64, i1 immarg) #1

declare dso_local i32 @__isoc99_scanf(i8*, ...) #2

; Function Attrs: nounwind
declare dso_local double @sqrt(double) #3

declare dso_local i32 @printf(i8*, ...) #2


!llvm.module.flags = !{!0}
!llvm.ident = !{!1}

!0 = !{i32 1, !"wchar_size", i32 4}
!1 = !{!"clang version 10.0.0-4ubuntu1 "}
